target datalayout = "e-m:e-p270:32:32-p271:32:32-p272:64:64-i64:64-i128:128-f80:128-n8:16:32:64-S128"
target triple = "x86_64-pc-linux-gnu"

%struct.slurm_select_ops_t = type { ptr, ptr, ptr, ptr, ptr, ptr, ptr, ptr, ptr, ptr, ptr, ptr, ptr, ptr, ptr, ptr, ptr, ptr, ptr, ptr, ptr, ptr, ptr, ptr, ptr, ptr, ptr, ptr, ptr, ptr, ptr, ptr }
%struct.dynamic_plugin_data = type { ptr, i32 }

@.str.6 = private unnamed_addr constant [9 x i8] c"select.c\00", align 1
@ops = internal global ptr null, align 8
@select_context_default = internal global i32 -1, align 4
@__func__.select_g_select_jobinfo_copy = private unnamed_addr constant [29 x i8] c"select_g_select_jobinfo_copy\00", align 1

; Function Attrs: nounwind uwtable
define dso_local ptr @select_g_select_jobinfo_copy(ptr noundef %0) #0 {
  %2 = alloca ptr, align 8
  %3 = alloca ptr, align 8
  store ptr %0, ptr %2, align 8
  call void @llvm.lifetime.start.p0(i64 8, ptr %3) #7
  store ptr null, ptr %3, align 8
  %4 = call ptr @slurm_xcalloc(i64 noundef 1, i64 noundef 16, i1 noundef zeroext true, i1 noundef zeroext false, ptr noundef @.str.6, i32 noundef 912, ptr noundef @__func__.select_g_select_jobinfo_copy)
  store ptr %4, ptr %3, align 8
  %5 = load ptr, ptr %2, align 8
  %6 = icmp ne ptr %5, null
  br i1 %6, label %7, label %27

7:                                                ; preds = %1
  %8 = load ptr, ptr %2, align 8
  %9 = getelementptr inbounds nuw %struct.dynamic_plugin_data, ptr %8, i32 0, i32 1
  %10 = load i32, ptr %9, align 8
  %11 = load ptr, ptr %3, align 8
  %12 = getelementptr inbounds nuw %struct.dynamic_plugin_data, ptr %11, i32 0, i32 1
  store i32 %10, ptr %12, align 8
  %13 = load ptr, ptr @ops, align 8
  %14 = load ptr, ptr %2, align 8
  %15 = getelementptr inbounds nuw %struct.dynamic_plugin_data, ptr %14, i32 0, i32 1
  %16 = load i32, ptr %15, align 8
  %17 = zext i32 %16 to i64
  %18 = getelementptr inbounds nuw %struct.slurm_select_ops_t, ptr %13, i64 %17
  %19 = getelementptr inbounds nuw %struct.slurm_select_ops_t, ptr %18, i32 0, i32 27
  %20 = load ptr, ptr %19, align 8
  %21 = load ptr, ptr %2, align 8
  %22 = getelementptr inbounds nuw %struct.dynamic_plugin_data, ptr %21, i32 0, i32 0
  %23 = load ptr, ptr %22, align 8
  %24 = call ptr %20(ptr noundef %23)
  %25 = load ptr, ptr %3, align 8
  %26 = getelementptr inbounds nuw %struct.dynamic_plugin_data, ptr %25, i32 0, i32 0
  store ptr %24, ptr %26, align 8
  br label %31

27:                                               ; preds = %1
  %28 = load i32, ptr @select_context_default, align 4
  %29 = load ptr, ptr %3, align 8
  %30 = getelementptr inbounds nuw %struct.dynamic_plugin_data, ptr %29, i32 0, i32 1
  store i32 %28, ptr %30, align 8
  br label %31

31:                                               ; preds = %27, %7
  %32 = load ptr, ptr %3, align 8
  call void @llvm.lifetime.end.p0(i64 8, ptr %3) #7
  ret ptr %32
}