; Function Attrs: nounwind uwtable
define dso_local ptr @select_g_select_jobinfo_copy(ptr noundef readonly captures(address_is_null) %0) local_unnamed_addr #0 {
  %2 = tail call ptr @slurm_xcalloc(i64 noundef 1, i64 noundef 16, i1 noundef zeroext true, i1 noundef zeroext false, ptr noundef nonnull @.str.6, i32 noundef 912, ptr noundef nonnull @__func__.select_g_select_jobinfo_copy) #15
  %.not = icmp eq ptr %0, null
  br i1 %.not, label %13, label %3

3:                                                ; preds = %1
  %4 = getelementptr inbounds nuw i8, ptr %0, i64 8
  %5 = load i32, ptr %4, align 8
  %6 = getelementptr inbounds nuw i8, ptr %2, i64 8
  store i32 %5, ptr %6, align 8
  %7 = load ptr, ptr @ops, align 8
  %8 = zext i32 %5 to i64
  %9 = getelementptr inbounds nuw %struct.slurm_select_ops_t, ptr %7, i64 %8, i32 27
  %10 = load ptr, ptr %9, align 8
  %11 = load ptr, ptr %0, align 8
  %12 = tail call ptr %10(ptr noundef %11) #15
  store ptr %12, ptr %2, align 8
  br label %16

13:                                               ; preds = %1
  %14 = load i32, ptr @select_context_default, align 4
  %15 = getelementptr inbounds nuw i8, ptr %2, i64 8
  store i32 %14, ptr %15, align 8
  br label %16

16:                                               ; preds = %13, %3
  ret ptr %2
}